target datalayout = "e-m:e-p270:32:32-p271:32:32-p272:64:64-i64:64-i128:128-f80:128-n8:16:32:64-S128"
target triple = "x86_64-pc-linux-gnu"

%struct.PyVarObject = type { %struct._object, i64 }
%struct._object = type { %union.anon, ptr }
%union.anon = type { i64 }
%struct._PyManagedBufferObject = type { %struct._object, i32, i64, %struct.Py_buffer }
%struct.Py_buffer = type { ptr, ptr, i64, i64, i32, i32, ptr, ptr, ptr, ptr, ptr }
%struct.PyMemoryViewObject = type { %struct.PyVarObject, ptr, i64, i32, i64, %struct.Py_buffer, ptr, [1 x i64] }

@PyExc_ValueError = external global ptr, align 8
@.str.8 = private unnamed_addr constant [50 x i8] c"operation forbidden on released memoryview object\00", align 1
@PyExc_NotImplementedError = external global ptr, align 8
@.str.19 = private unnamed_addr constant [34 x i8] c"memoryview: unsupported format %s\00", align 1

; Function Attrs: inlinehint nounwind uwtable
define internal ptr @adjust_fmt(ptr noundef %0) #3 {
  %2 = alloca ptr, align 8
  %3 = alloca ptr, align 8
  %4 = alloca ptr, align 8
  %5 = alloca i32, align 4
  store ptr %0, ptr %3, align 8, !tbaa !9
  call void @llvm.lifetime.start.p0(i64 8, ptr %4) #9
  %6 = load ptr, ptr %3, align 8, !tbaa !9
  %7 = getelementptr inbounds nuw %struct.Py_buffer, ptr %6, i32 0, i32 6
  %8 = load ptr, ptr %7, align 8, !tbaa !42
  %9 = getelementptr i8, ptr %8, i64 0
  %10 = load i8, ptr %9, align 1, !tbaa !29
  %11 = sext i8 %10 to i32
  %12 = icmp eq i32 %11, 64
  br i1 %12, label %13, label %18

13:                                               ; preds = %1
  %14 = load ptr, ptr %3, align 8, !tbaa !9
  %15 = getelementptr inbounds nuw %struct.Py_buffer, ptr %14, i32 0, i32 6
  %16 = load ptr, ptr %15, align 8, !tbaa !42
  %17 = getelementptr i8, ptr %16, i64 1
  br label %22

18:                                               ; preds = %1
  %19 = load ptr, ptr %3, align 8, !tbaa !9
  %20 = getelementptr inbounds nuw %struct.Py_buffer, ptr %19, i32 0, i32 6
  %21 = load ptr, ptr %20, align 8, !tbaa !42
  br label %22

22:                                               ; preds = %18, %13
  %23 = phi ptr [ %17, %13 ], [ %21, %18 ]
  store ptr %23, ptr %4, align 8, !tbaa !22
  %24 = load ptr, ptr %4, align 8, !tbaa !22
  %25 = getelementptr i8, ptr %24, i64 0
  %26 = load i8, ptr %25, align 1, !tbaa !29
  %27 = sext i8 %26 to i32
  %28 = icmp ne i32 %27, 0
  br i1 %28, label %29, label %37

29:                                               ; preds = %22
  %30 = load ptr, ptr %4, align 8, !tbaa !22
  %31 = getelementptr i8, ptr %30, i64 1
  %32 = load i8, ptr %31, align 1, !tbaa !29
  %33 = sext i8 %32 to i32
  %34 = icmp eq i32 %33, 0
  br i1 %34, label %35, label %37

35:                                               ; preds = %29
  %36 = load ptr, ptr %4, align 8, !tbaa !22
  store ptr %36, ptr %2, align 8
  store i32 1, ptr %5, align 4
  br label %43

37:                                               ; preds = %29, %22
  %38 = load ptr, ptr @PyExc_NotImplementedError, align 8, !tbaa !4
  %39 = load ptr, ptr %3, align 8, !tbaa !9
  %40 = getelementptr inbounds nuw %struct.Py_buffer, ptr %39, i32 0, i32 6
  %41 = load ptr, ptr %40, align 8, !tbaa !42
  %42 = call ptr (ptr, ptr, ...) @PyErr_Format(ptr noundef %38, ptr noundef @.str.19, ptr noundef %41)
  store ptr null, ptr %2, align 8
  store i32 1, ptr %5, align 4
  br label %43

43:                                               ; preds = %37, %35
  call void @llvm.lifetime.end.p0(i64 8, ptr %4) #9
  %44 = load ptr, ptr %2, align 8
  ret ptr %44
}

; Function Attrs: nounwind uwtable
define internal ptr @memoryview_tolist_impl(ptr noundef %0) #0 {
  %2 = alloca ptr, align 8
  %3 = alloca ptr, align 8
  %4 = alloca ptr, align 8
  %5 = alloca ptr, align 8
  %6 = alloca i32, align 4
  store ptr %0, ptr %3, align 8, !tbaa !9
  call void @llvm.lifetime.start.p0(i64 8, ptr %4) #9
  %7 = load ptr, ptr %3, align 8, !tbaa !9
  %8 = getelementptr inbounds nuw %struct.PyMemoryViewObject, ptr %7, i32 0, i32 5
  store ptr %8, ptr %4, align 8, !tbaa !9
  call void @llvm.lifetime.start.p0(i64 8, ptr %5) #9
  %9 = load ptr, ptr %3, align 8, !tbaa !9
  %10 = getelementptr inbounds nuw %struct.PyMemoryViewObject, ptr %9, i32 0, i32 3
  %11 = load i32, ptr %10, align 8, !tbaa !33
  %12 = and i32 %11, 1
  %13 = icmp ne i32 %12, 0
  br i1 %13, label %22, label %14

14:                                               ; preds = %1
  %15 = load ptr, ptr %3, align 8, !tbaa !9
  %16 = getelementptr inbounds nuw %struct.PyMemoryViewObject, ptr %15, i32 0, i32 1
  %17 = load ptr, ptr %16, align 8, !tbaa !26
  %18 = getelementptr inbounds nuw %struct._PyManagedBufferObject, ptr %17, i32 0, i32 1
  %19 = load i32, ptr %18, align 8, !tbaa !10
  %20 = and i32 %19, 1
  %21 = icmp ne i32 %20, 0
  br i1 %21, label %22, label %24

22:                                               ; preds = %14, %1
  %23 = load ptr, ptr @PyExc_ValueError, align 8, !tbaa !4
  call void @PyErr_SetString(ptr noundef %23, ptr noundef @.str.8)
  store ptr null, ptr %2, align 8
  store i32 1, ptr %6, align 4
  br label %83

24:                                               ; preds = %14
  %25 = load ptr, ptr %4, align 8, !tbaa !9
  %26 = call ptr @adjust_fmt(ptr noundef %25)
  store ptr %26, ptr %5, align 8, !tbaa !22
  %27 = load ptr, ptr %5, align 8, !tbaa !22
  %28 = icmp eq ptr %27, null
  br i1 %28, label %29, label %30

29:                                               ; preds = %24
  store ptr null, ptr %2, align 8
  store i32 1, ptr %6, align 4
  br label %83

30:                                               ; preds = %24
  %31 = load ptr, ptr %4, align 8, !tbaa !9
  %32 = getelementptr inbounds nuw %struct.Py_buffer, ptr %31, i32 0, i32 5
  %33 = load i32, ptr %32, align 4, !tbaa !25
  %34 = icmp eq i32 %33, 0
  br i1 %34, label %35, label %42

35:                                               ; preds = %30
  %36 = load ptr, ptr %3, align 8, !tbaa !9
  %37 = load ptr, ptr %4, align 8, !tbaa !9
  %38 = getelementptr inbounds nuw %struct.Py_buffer, ptr %37, i32 0, i32 0
  %39 = load ptr, ptr %38, align 8, !tbaa !30
  %40 = load ptr, ptr %5, align 8, !tbaa !22
  %41 = call ptr @unpack_single(ptr noundef %36, ptr noundef %39, ptr noundef %40)
  store ptr %41, ptr %2, align 8
  store i32 1, ptr %6, align 4
  br label %83

42:                                               ; preds = %30
  %43 = load ptr, ptr %4, align 8, !tbaa !9
  %44 = getelementptr inbounds nuw %struct.Py_buffer, ptr %43, i32 0, i32 5
  %45 = load i32, ptr %44, align 4, !tbaa !25
  %46 = icmp eq i32 %45, 1
  br i1 %46, label %47, label %63

47:                                               ; preds = %42
  %48 = load ptr, ptr %3, align 8, !tbaa !9
  %49 = load ptr, ptr %4, align 8, !tbaa !9
  %50 = getelementptr inbounds nuw %struct.Py_buffer, ptr %49, i32 0, i32 0
  %51 = load ptr, ptr %50, align 8, !tbaa !30
  %52 = load ptr, ptr %4, align 8, !tbaa !9
  %53 = getelementptr inbounds nuw %struct.Py_buffer, ptr %52, i32 0, i32 7
  %54 = load ptr, ptr %53, align 8, !tbaa !44
  %55 = load ptr, ptr %4, align 8, !tbaa !9
  %56 = getelementptr inbounds nuw %struct.Py_buffer, ptr %55, i32 0, i32 8
  %57 = load ptr, ptr %56, align 8, !tbaa !55
  %58 = load ptr, ptr %4, align 8, !tbaa !9
  %59 = getelementptr inbounds nuw %struct.Py_buffer, ptr %58, i32 0, i32 9
  %60 = load ptr, ptr %59, align 8, !tbaa !47
  %61 = load ptr, ptr %5, align 8, !tbaa !22
  %62 = call ptr @tolist_base(ptr noundef %48, ptr noundef %51, ptr noundef %54, ptr noundef %57, ptr noundef %60, ptr noundef %61)
  store ptr %62, ptr %2, align 8
  store i32 1, ptr %6, align 4
  br label %83

63:                                               ; preds = %42
  %64 = load ptr, ptr %3, align 8, !tbaa !9
  %65 = load ptr, ptr %4, align 8, !tbaa !9
  %66 = getelementptr inbounds nuw %struct.Py_buffer, ptr %65, i32 0, i32 0
  %67 = load ptr, ptr %66, align 8, !tbaa !30
  %68 = load ptr, ptr %4, align 8, !tbaa !9
  %69 = getelementptr inbounds nuw %struct.Py_buffer, ptr %68, i32 0, i32 5
  %70 = load i32, ptr %69, align 4, !tbaa !25
  %71 = sext i32 %70 to i64
  %72 = load ptr, ptr %4, align 8, !tbaa !9
  %73 = getelementptr inbounds nuw %struct.Py_buffer, ptr %72, i32 0, i32 7
  %74 = load ptr, ptr %73, align 8, !tbaa !44
  %75 = load ptr, ptr %4, align 8, !tbaa !9
  %76 = getelementptr inbounds nuw %struct.Py_buffer, ptr %75, i32 0, i32 8
  %77 = load ptr, ptr %76, align 8, !tbaa !55
  %78 = load ptr, ptr %4, align 8, !tbaa !9
  %79 = getelementptr inbounds nuw %struct.Py_buffer, ptr %78, i32 0, i32 9
  %80 = load ptr, ptr %79, align 8, !tbaa !47
  %81 = load ptr, ptr %5, align 8, !tbaa !22
  %82 = call ptr @tolist_rec(ptr noundef %64, ptr noundef %67, i64 noundef %71, ptr noundef %74, ptr noundef %77, ptr noundef %80, ptr noundef %81)
  store ptr %82, ptr %2, align 8
  store i32 1, ptr %6, align 4
  br label %83

83:                                               ; preds = %63, %47, %35, %29, %22
  call void @llvm.lifetime.end.p0(i64 8, ptr %5) #9
  call void @llvm.lifetime.end.p0(i64 8, ptr %4) #9
  %84 = load ptr, ptr %2, align 8
  ret ptr %84
}

; Function Attrs: nounwind uwtable
define internal ptr @memoryview_tolist(ptr noundef %0, ptr noundef %1) #0 {
  %3 = alloca ptr, align 8
  %4 = alloca ptr, align 8
  store ptr %0, ptr %3, align 8, !tbaa !4
  store ptr %1, ptr %4, align 8, !tbaa !4
  %5 = load ptr, ptr %3, align 8, !tbaa !4
  %6 = call ptr @memoryview_tolist_impl(ptr noundef %5)
  ret ptr %6
}