; Function Attrs: nounwind uwtable
define internal ptr @memoryview_tolist(ptr noundef readonly captures(none) %0, ptr readnone captures(none) %1) #0 {
  %3 = getelementptr inbounds nuw i8, ptr %0, i64 56
  %4 = getelementptr inbounds nuw i8, ptr %0, i64 40
  %5 = load i32, ptr %4, align 8, !tbaa !109
  %6 = and i32 %5, 1
  %.not.i = icmp eq i32 %6, 0
  br i1 %.not.i, label %7, label %13

7:                                                ; preds = %2
  %8 = getelementptr inbounds nuw i8, ptr %0, i64 24
  %9 = load ptr, ptr %8, align 8, !tbaa !105
  %10 = getelementptr inbounds nuw i8, ptr %9, i64 16
  %11 = load i32, ptr %10, align 8, !tbaa !4
  %12 = and i32 %11, 1
  %.not26.i = icmp eq i32 %12, 0
  br i1 %.not26.i, label %15, label %13

13:                                               ; preds = %7, %2
  %14 = load ptr, ptr @PyExc_ValueError, align 8, !tbaa !104
  tail call void @PyErr_SetString(ptr noundef %14, ptr noundef nonnull @.str.8) #14
  br label %memoryview_tolist_impl.exit

15:                                               ; preds = %7
  %16 = getelementptr i8, ptr %0, i64 96
  %.val.i = load ptr, ptr %16, align 8, !tbaa !121
  %17 = load i8, ptr %.val.i, align 1, !tbaa !102
  %18 = icmp eq i8 %17, 64
  %.idx.i.i = zext i1 %18 to i64
  %19 = getelementptr i8, ptr %.val.i, i64 %.idx.i.i
  %20 = load i8, ptr %19, align 1, !tbaa !102
  %.not.i.i = icmp eq i8 %20, 0
  br i1 %.not.i.i, label %adjust_fmt.exit.thread.i, label %21

21:                                               ; preds = %15
  %22 = getelementptr i8, ptr %19, i64 1
  %23 = load i8, ptr %22, align 1, !tbaa !102
  %24 = icmp eq i8 %23, 0
  br i1 %24, label %adjust_fmt.exit.i, label %adjust_fmt.exit.thread.i

adjust_fmt.exit.thread.i:                         ; preds = %21, %15
  %25 = load ptr, ptr @PyExc_NotImplementedError, align 8, !tbaa !104
  %26 = tail call ptr (ptr, ptr, ...) @PyErr_Format(ptr noundef %25, ptr noundef nonnull @.str.19, ptr noundef nonnull %.val.i) #14
  br label %memoryview_tolist_impl.exit

adjust_fmt.exit.i:                                ; preds = %21
  %27 = getelementptr inbounds nuw i8, ptr %0, i64 92
  %28 = load i32, ptr %27, align 4, !tbaa !103
  %29 = load ptr, ptr %3, align 8, !tbaa !117
  switch i32 %28, label %40 [
    i32 0, label %30
    i32 1, label %32
  ]

30:                                               ; preds = %adjust_fmt.exit.i
  %31 = tail call fastcc ptr @unpack_single(ptr noundef nonnull readonly %0, ptr noundef %29, ptr noundef nonnull %19)
  br label %memoryview_tolist_impl.exit

32:                                               ; preds = %adjust_fmt.exit.i
  %33 = getelementptr inbounds nuw i8, ptr %0, i64 104
  %34 = load ptr, ptr %33, align 8, !tbaa !127
  %35 = getelementptr inbounds nuw i8, ptr %0, i64 112
  %36 = load ptr, ptr %35, align 8, !tbaa !128
  %37 = getelementptr inbounds nuw i8, ptr %0, i64 120
  %38 = load ptr, ptr %37, align 8, !tbaa !123
  %39 = tail call fastcc ptr @tolist_base(ptr noundef nonnull readonly %0, ptr noundef %29, ptr noundef %34, ptr noundef %36, ptr noundef %38, ptr noundef %19)
  br label %memoryview_tolist_impl.exit

40:                                               ; preds = %adjust_fmt.exit.i
  %41 = sext i32 %28 to i64
  %42 = getelementptr inbounds nuw i8, ptr %0, i64 104
  %43 = load ptr, ptr %42, align 8, !tbaa !127
  %44 = getelementptr inbounds nuw i8, ptr %0, i64 112
  %45 = load ptr, ptr %44, align 8, !tbaa !128
  %46 = getelementptr inbounds nuw i8, ptr %0, i64 120
  %47 = load ptr, ptr %46, align 8, !tbaa !123
  %48 = tail call fastcc ptr @tolist_rec(ptr noundef nonnull readonly %0, ptr noundef %29, i64 noundef %41, ptr noundef %43, ptr noundef %45, ptr noundef %47, ptr noundef %19)
  br label %memoryview_tolist_impl.exit

memoryview_tolist_impl.exit:                      ; preds = %13, %adjust_fmt.exit.thread.i, %30, %32, %40
  %.0.i = phi ptr [ null, %13 ], [ %31, %30 ], [ %39, %32 ], [ %48, %40 ], [ null, %adjust_fmt.exit.thread.i ]
  ret ptr %.0.i
}